target datalayout = "e-m:e-p270:32:32-p271:32:32-p272:64:64-i64:64-i128:128-f80:128-n8:16:32:64-S128"
target triple = "x86_64-pc-linux-gnu"

; Function Attrs: nounwind uwtable
define internal i32 @read_number(ptr noundef %0, ptr noundef %1, i32 noundef %2, i32 noundef %3, i32 noundef %4, ptr noundef %5, ptr noundef %6) #0 {
  %8 = alloca i32, align 4
  %9 = alloca ptr, align 8
  %10 = alloca ptr, align 8
  %11 = alloca i32, align 4
  %12 = alloca i32, align 4
  %13 = alloca i32, align 4
  %14 = alloca ptr, align 8
  %15 = alloca ptr, align 8
  %16 = alloca i32, align 4
  %17 = alloca i32, align 4
  %18 = alloca ptr, align 8
  %19 = alloca i32, align 4
  store ptr %0, ptr %9, align 8
  store ptr %1, ptr %10, align 8
  store i32 %2, ptr %11, align 4
  store i32 %3, ptr %12, align 4
  store i32 %4, ptr %13, align 4
  store ptr %5, ptr %14, align 8
  store ptr %6, ptr %15, align 8
  store i32 0, ptr %16, align 4
  store i32 0, ptr %17, align 4
  %20 = load ptr, ptr %9, align 8
  %21 = load ptr, ptr %20, align 8
  store ptr %21, ptr %18, align 8
  store i32 0, ptr %19, align 4
  %22 = load ptr, ptr %15, align 8
  store i32 0, ptr %22, align 4
  %23 = load i32, ptr %11, align 4
  %24 = icmp sge i32 %23, 0
  br i1 %24, label %25, label %50

25:                                               ; preds = %7
  %26 = load ptr, ptr %18, align 8
  %27 = load ptr, ptr %10, align 8
  %28 = icmp ult ptr %26, %27
  br i1 %28, label %29, label %50

29:                                               ; preds = %25
  %30 = load ptr, ptr %18, align 8
  %31 = load i8, ptr %30, align 1
  %32 = zext i8 %31 to i32
  %33 = icmp eq i32 %32, 43
  br i1 %33, label %34, label %40

34:                                               ; preds = %29
  store i32 1, ptr %16, align 4
  %35 = load i32, ptr %11, align 4
  %36 = load i32, ptr %12, align 4
  %37 = sub i32 %36, %35
  store i32 %37, ptr %12, align 4
  %38 = load ptr, ptr %18, align 8
  %39 = getelementptr inbounds i8, ptr %38, i32 1
  store ptr %39, ptr %18, align 8
  br label %49

40:                                               ; preds = %29
  %41 = load ptr, ptr %18, align 8
  %42 = load i8, ptr %41, align 1
  %43 = zext i8 %42 to i32
  %44 = icmp eq i32 %43, 45
  br i1 %44, label %45, label %48

45:                                               ; preds = %40
  store i32 -1, ptr %16, align 4
  %46 = load ptr, ptr %18, align 8
  %47 = getelementptr inbounds i8, ptr %46, i32 1
  store ptr %47, ptr %18, align 8
  br label %48

48:                                               ; preds = %45, %40
  br label %49

49:                                               ; preds = %48, %34
  br label %50

50:                                               ; preds = %49, %25, %7
  %51 = load ptr, ptr %18, align 8
  %52 = load ptr, ptr %10, align 8
  %53 = icmp uge ptr %51, %52
  br i1 %53, label %64, label %54

54:                                               ; preds = %50
  %55 = load ptr, ptr %18, align 8
  %56 = load i8, ptr %55, align 1
  %57 = zext i8 %56 to i32
  %58 = icmp sge i32 %57, 48
  br i1 %58, label %59, label %64

59:                                               ; preds = %54
  %60 = load ptr, ptr %18, align 8
  %61 = load i8, ptr %60, align 1
  %62 = zext i8 %61 to i32
  %63 = icmp sle i32 %62, 57
  br i1 %63, label %65, label %64

64:                                               ; preds = %59, %54, %50
  store i32 0, ptr %8, align 4
  br label %138

65:                                               ; preds = %59
  br label %66

66:                                               ; preds = %99, %65
  %67 = load ptr, ptr %18, align 8
  %68 = load ptr, ptr %10, align 8
  %69 = icmp ult ptr %67, %68
  br i1 %69, label %70, label %82

70:                                               ; preds = %66
  %71 = load ptr, ptr %18, align 8
  %72 = load i8, ptr %71, align 1
  %73 = zext i8 %72 to i32
  %74 = icmp sge i32 %73, 48
  br i1 %74, label %75, label %80

75:                                               ; preds = %70
  %76 = load ptr, ptr %18, align 8
  %77 = load i8, ptr %76, align 1
  %78 = zext i8 %77 to i32
  %79 = icmp sle i32 %78, 57
  br label %80

80:                                               ; preds = %75, %70
  %81 = phi i1 [ false, %70 ], [ %79, %75 ]
  br label %82

82:                                               ; preds = %80, %66
  %83 = phi i1 [ false, %66 ], [ %81, %80 ]
  br i1 %83, label %84, label %100

84:                                               ; preds = %82
  %85 = load i32, ptr %17, align 4
  %86 = mul i32 %85, 10
  %87 = load ptr, ptr %18, align 8
  %88 = getelementptr inbounds i8, ptr %87, i32 1
  store ptr %88, ptr %18, align 8
  %89 = load i8, ptr %87, align 1
  %90 = zext i8 %89 to i32
  %91 = add i32 %86, %90
  %92 = sub i32 %91, 48
  store i32 %92, ptr %17, align 4
  %93 = load i32, ptr %17, align 4
  %94 = load i32, ptr %12, align 4
  %95 = icmp ugt i32 %93, %94
  br i1 %95, label %96, label %99

96:                                               ; preds = %84
  %97 = load i32, ptr %13, align 4
  %98 = load ptr, ptr %15, align 8
  store i32 %97, ptr %98, align 4
  br label %132

99:                                               ; preds = %84
  br label %66

100:                                              ; preds = %82
  %101 = load i32, ptr %11, align 4
  %102 = icmp sge i32 %101, 0
  br i1 %102, label %103, label %131

103:                                              ; preds = %100
  %104 = load i32, ptr %16, align 4
  %105 = icmp ne i32 %104, 0
  br i1 %105, label %106, label %131

106:                                              ; preds = %103
  %107 = load i32, ptr %17, align 4
  %108 = icmp eq i32 %107, 0
  br i1 %108, label %109, label %111

109:                                              ; preds = %106
  %110 = load ptr, ptr %15, align 8
  store i32 126, ptr %110, align 4
  br label %132

111:                                              ; preds = %106
  %112 = load i32, ptr %16, align 4
  %113 = icmp sgt i32 %112, 0
  br i1 %113, label %114, label %118

114:                                              ; preds = %111
  %115 = load i32, ptr %11, align 4
  %116 = load i32, ptr %17, align 4
  %117 = add i32 %116, %115
  store i32 %117, ptr %17, align 4
  br label %130

118:                                              ; preds = %111
  %119 = load i32, ptr %17, align 4
  %120 = load i32, ptr %11, align 4
  %121 = icmp sgt i32 %119, %120
  br i1 %121, label %122, label %124

122:                                              ; preds = %118
  %123 = load ptr, ptr %15, align 8
  store i32 115, ptr %123, align 4
  br label %132

124:                                              ; preds = %118
  %125 = load i32, ptr %11, align 4
  %126 = add nsw i32 %125, 1
  %127 = load i32, ptr %17, align 4
  %128 = sub i32 %126, %127
  store i32 %128, ptr %17, align 4
  br label %129

129:                                              ; preds = %124
  br label %130

130:                                              ; preds = %129, %114
  br label %131

131:                                              ; preds = %130, %103, %100
  store i32 1, ptr %19, align 4
  br label %132

132:                                              ; preds = %131, %122, %109, %96
  %133 = load i32, ptr %17, align 4
  %134 = load ptr, ptr %14, align 8
  store i32 %133, ptr %134, align 4
  %135 = load ptr, ptr %18, align 8
  %136 = load ptr, ptr %9, align 8
  store ptr %135, ptr %136, align 8
  %137 = load i32, ptr %19, align 4
  store i32 %137, ptr %8, align 4
  br label %138

138:                                              ; preds = %132, %64
  %139 = load i32, ptr %8, align 4
  ret i32 %139
}