; Function Attrs: nofree norecurse nosync nounwind memory(read, argmem: readwrite, inaccessiblemem: none) uwtable
define internal fastcc noundef i32 @read_number(ptr nocapture noundef %0, ptr noundef readnone %1, i32 noundef %2, i32 noundef %3, i32 noundef %4, ptr nocapture noundef writeonly %5, ptr nocapture noundef writeonly %6) unnamed_addr #4 {
  %8 = load ptr, ptr %0, align 8
  store i32 0, ptr %6, align 4
  %9 = icmp sgt i32 %2, -1
  %10 = icmp ult ptr %8, %1
  %or.cond60 = select i1 %9, i1 %10, i1 false
  br i1 %or.cond60, label %11, label %18

11:                                               ; preds = %7
  %12 = load i8, ptr %8, align 1
  switch i8 %12, label %18 [
    i8 43, label %13
    i8 45, label %16
  ]

13:                                               ; preds = %11
  %14 = sub nsw i32 %3, %2
  %15 = getelementptr inbounds i8, ptr %8, i64 1
  br label %18

16:                                               ; preds = %11
  %17 = getelementptr inbounds i8, ptr %8, i64 1
  br label %18

18:                                               ; preds = %11, %13, %16, %7
  %.049 = phi i32 [ %14, %13 ], [ %3, %16 ], [ %3, %7 ], [ %3, %11 ]
  %19 = phi i1 [ true, %13 ], [ true, %16 ], [ false, %7 ], [ false, %11 ]
  %20 = phi i1 [ true, %13 ], [ false, %16 ], [ false, %7 ], [ false, %11 ]
  %.043 = phi ptr [ %15, %13 ], [ %17, %16 ], [ %8, %7 ], [ %8, %11 ]
  %.not = icmp ult ptr %.043, %1
  br i1 %.not, label %21, label %49

21:                                               ; preds = %18
  %22 = load i8, ptr %.043, align 1
  %23 = add i8 %22, -48
  %or.cond61 = icmp ult i8 %23, 10
  br i1 %or.cond61, label %.preheader, label %49

.preheader:                                       ; preds = %21, %28
  %.044 = phi i32 [ %33, %28 ], [ 0, %21 ]
  %.1 = phi ptr [ %31, %28 ], [ %.043, %21 ]
  %24 = icmp ult ptr %.1, %1
  br i1 %24, label %25, label %.critedge

25:                                               ; preds = %.preheader
  %26 = load i8, ptr %.1, align 1
  %27 = add i8 %26, -48
  %or.cond62 = icmp ult i8 %27, 10
  br i1 %or.cond62, label %28, label %.critedge

28:                                               ; preds = %25
  %29 = zext nneg i8 %26 to i32
  %30 = mul i32 %.044, 10
  %31 = getelementptr inbounds i8, ptr %.1, i64 1
  %32 = add i32 %30, -48
  %33 = add i32 %32, %29
  %34 = icmp ugt i32 %33, %.049
  br i1 %34, label %35, label %.preheader

35:                                               ; preds = %28
  store i32 %4, ptr %6, align 4
  br label %48

.critedge:                                        ; preds = %.preheader, %25
  %or.cond = and i1 %9, %19
  br i1 %or.cond, label %36, label %48

36:                                               ; preds = %.critedge
  %37 = icmp eq i32 %.044, 0
  br i1 %37, label %38, label %39

38:                                               ; preds = %36
  store i32 126, ptr %6, align 4
  br label %48

39:                                               ; preds = %36
  br i1 %20, label %40, label %42

40:                                               ; preds = %39
  %41 = add i32 %.044, %2
  br label %48

42:                                               ; preds = %39
  %43 = icmp sgt i32 %.044, %2
  br i1 %43, label %44, label %45

44:                                               ; preds = %42
  store i32 115, ptr %6, align 4
  br label %48

45:                                               ; preds = %42
  %46 = add nuw nsw i32 %2, 1
  %47 = sub i32 %46, %.044
  br label %48

48:                                               ; preds = %.critedge, %45, %40, %44, %38, %35
  %.246 = phi i32 [ %33, %35 ], [ 0, %38 ], [ %.044, %44 ], [ %41, %40 ], [ %47, %45 ], [ %.044, %.critedge ]
  %.2 = phi ptr [ %31, %35 ], [ %.1, %38 ], [ %.1, %44 ], [ %.1, %40 ], [ %.1, %45 ], [ %.1, %.critedge ]
  %.0 = phi i32 [ 0, %35 ], [ 0, %38 ], [ 0, %44 ], [ 1, %40 ], [ 1, %45 ], [ 1, %.critedge ]
  store i32 %.246, ptr %5, align 4
  store ptr %.2, ptr %0, align 8
  br label %49

49:                                               ; preds = %18, %21, %48
  %.048 = phi i32 [ %.0, %48 ], [ 0, %21 ], [ 0, %18 ]
  ret i32 %.048
}